; Function Attrs: nounwind uwtable
define internal fastcc range(i32 -1094995529, 1) i32 @cbs_av1_read_increment(ptr noundef readonly captures(none) %0, ptr noundef nonnull captures(none) %1, i32 noundef %2, i32 noundef %3, ptr noundef %4, ptr noundef nonnull writeonly captures(none) %5) unnamed_addr #0 {
  %7 = alloca %struct.GetBitContext, align 8
  call void @llvm.lifetime.start.p0(i64 32, ptr nonnull %7) #8
  %8 = getelementptr inbounds nuw i8, ptr %0, i64 36
  %9 = load i32, ptr %8, align 4, !tbaa !4
  %.not = icmp eq i32 %9, 0
  br i1 %.not, label %11, label %10

10:                                               ; preds = %6
  call void @llvm.memcpy.p0.p0.i64(ptr noundef nonnull align 8 dereferenceable(32) %7, ptr noundef nonnull align 8 dereferenceable(32) %1, i64 32, i1 false), !tbaa.struct !204
  br label %11

11:                                               ; preds = %6, %10
  %.not32 = icmp ule i32 %2, %3
  %12 = sub nuw i32 %3, %2
  %13 = icmp ult i32 %12, 32
  %or.cond = select i1 %.not32, i1 %13, i1 false
  br i1 %or.cond, label %.preheader, label %18

.preheader:                                       ; preds = %11
  %14 = icmp ult i32 %2, %3
  br i1 %14, label %.lr.ph, label %._crit_edge

.lr.ph:                                           ; preds = %.preheader
  %15 = getelementptr i8, ptr %1, i64 16
  %16 = getelementptr i8, ptr %1, i64 20
  %.val39 = load i32, ptr %16, align 4, !tbaa !23
  %17 = getelementptr inbounds nuw i8, ptr %1, i64 24
  %.promoted = load i32, ptr %15, align 8, !tbaa !26
  br label %19

18:                                               ; preds = %11
  tail call void (ptr, i32, ptr, ...) @av_log(ptr noundef null, i32 noundef 0, ptr noundef nonnull @.str.8, ptr noundef nonnull @.str.160, ptr noundef nonnull @.str.10, i32 noundef 281) #8
  tail call void @abort() #9
  unreachable

19:                                               ; preds = %.lr.ph, %35
  %spec.select.i45 = phi i32 [ %.promoted, %.lr.ph ], [ %spec.select.i, %35 ]
  %.02742 = phi i32 [ %2, %.lr.ph ], [ %36, %35 ]
  %.not40 = icmp sgt i32 %.val39, %spec.select.i45
  br i1 %.not40, label %22, label %20

20:                                               ; preds = %19
  %21 = load ptr, ptr %0, align 8, !tbaa !19
  tail call void (ptr, i32, ptr, ...) @av_log(ptr noundef %21, i32 noundef 16, ptr noundef nonnull @.str.161, ptr noundef %4) #8
  br label %49

22:                                               ; preds = %19
  %23 = load ptr, ptr %1, align 8, !tbaa !21
  %24 = lshr i32 %spec.select.i45, 3
  %25 = zext nneg i32 %24 to i64
  %26 = getelementptr inbounds nuw i8, ptr %23, i64 %25
  %27 = load i8, ptr %26, align 1, !tbaa !20
  %28 = load i32, ptr %17, align 8, !tbaa !24
  %29 = icmp slt i32 %spec.select.i45, %28
  %30 = zext i1 %29 to i32
  %spec.select.i = add nsw i32 %spec.select.i45, %30
  %31 = zext i8 %27 to i32
  %32 = and i32 %spec.select.i45, 7
  store i32 %spec.select.i, ptr %15, align 8, !tbaa !26
  %33 = lshr exact i32 128, %32
  %34 = and i32 %33, %31
  %.not33 = icmp eq i32 %34, 0
  br i1 %.not33, label %._crit_edge, label %35

35:                                               ; preds = %22
  %36 = add i32 %.02742, 1
  %exitcond.not = icmp eq i32 %36, %3
  br i1 %exitcond.not, label %._crit_edge, label %19, !llvm.loop !408

._crit_edge:                                      ; preds = %22, %35, %.preheader
  %.027.lcssa = phi i32 [ %2, %.preheader ], [ %3, %35 ], [ %.02742, %22 ]
  br i1 %.not, label %48, label %37

37:                                               ; preds = %._crit_edge
  %38 = getelementptr inbounds nuw i8, ptr %7, i64 16
  %.val37 = load i32, ptr %38, align 8, !tbaa !26
  %39 = getelementptr i8, ptr %1, i64 16
  %.val = load i32, ptr %39, align 8, !tbaa !26
  %.not35 = icmp sgt i32 %.val37, %.val
  br i1 %.not35, label %40, label %41

40:                                               ; preds = %37
  tail call void (ptr, i32, ptr, ...) @av_log(ptr noundef null, i32 noundef 0, ptr noundef nonnull @.str.8, ptr noundef nonnull @.str.28, ptr noundef nonnull @.str.10, i32 noundef 295) #8
  tail call void @abort() #9
  unreachable

41:                                               ; preds = %37
  %42 = getelementptr inbounds nuw i8, ptr %0, i64 56
  %43 = load ptr, ptr %42, align 8, !tbaa !206
  %44 = getelementptr inbounds nuw i8, ptr %0, i64 48
  %45 = load ptr, ptr %44, align 8, !tbaa !98
  %46 = sub nsw i32 %.val, %.val37
  %47 = zext i32 %.027.lcssa to i64
  call void %43(ptr noundef %45, ptr noundef nonnull %7, i32 noundef %46, ptr noundef %4, ptr noundef null, i64 noundef %47) #8
  br label %48

48:                                               ; preds = %41, %._crit_edge
  store i32 %.027.lcssa, ptr %5, align 4, !tbaa !69
  br label %49

49:                                               ; preds = %48, %20
  %.0 = phi i32 [ -1094995529, %20 ], [ 0, %48 ]
  call void @llvm.lifetime.end.p0(i64 32, ptr nonnull %7) #8
  ret i32 %.0
}